; Function Attrs: nounwind uwtable
define hidden void @png_process_data(ptr noalias noundef %0, ptr noalias noundef %1, ptr noundef %2, i64 noundef %3) local_unnamed_addr #0 {
  %5 = icmp eq ptr %0, null
  %6 = icmp eq ptr %1, null
  %or.cond = or i1 %5, %6
  br i1 %or.cond, label %.loopexit, label %7

7:                                                ; preds = %4
  %8 = getelementptr inbounds i8, ptr %0, i64 720
  store ptr %2, ptr %8, align 8, !alias.scope !6
  %9 = getelementptr inbounds i8, ptr %0, i64 760
  store i64 %3, ptr %9, align 8, !alias.scope !6
  %10 = getelementptr inbounds i8, ptr %0, i64 736
  %11 = load i64, ptr %10, align 8, !alias.scope !6
  %12 = add i64 %11, %3
  %13 = getelementptr inbounds i8, ptr %0, i64 752
  store i64 %12, ptr %13, align 8, !alias.scope !6
  %14 = getelementptr inbounds i8, ptr %0, i64 712
  store ptr %2, ptr %14, align 8, !alias.scope !6
  %.not9 = icmp eq i64 %12, 0
  br i1 %.not9, label %.loopexit, label %.lr.ph

.lr.ph:                                           ; preds = %7
  %15 = getelementptr inbounds i8, ptr %0, i64 768
  br label %16

16:                                               ; preds = %.lr.ph, %png_process_some_data.exit
  %17 = load i32, ptr %15, align 8, !alias.scope !9, !noalias !12
  switch i32 %17, label %png_process_some_data.exit.thread [
    i32 0, label %18
    i32 1, label %19
    i32 2, label %20
  ]

18:                                               ; preds = %16
  tail call void @png_push_read_sig(ptr noundef nonnull %0, ptr noundef %1)
  br label %png_process_some_data.exit

19:                                               ; preds = %16
  tail call void @png_push_read_chunk(ptr noundef nonnull %0, ptr noundef %1)
  br label %png_process_some_data.exit

20:                                               ; preds = %16
  tail call void @png_push_read_IDAT(ptr noundef nonnull %0), !noalias !12
  br label %png_process_some_data.exit

png_process_some_data.exit.thread:                ; preds = %16
  store i64 0, ptr %13, align 8, !alias.scope !9, !noalias !12
  br label %.loopexit

png_process_some_data.exit:                       ; preds = %18, %19, %20
  %.pr.pr = load i64, ptr %13, align 8
  %.not = icmp eq i64 %.pr.pr, 0
  br i1 %.not, label %.loopexit, label %16, !llvm.loop !14

.loopexit:                                        ; preds = %png_process_some_data.exit, %png_process_some_data.exit.thread, %7, %4
  ret void
}